target datalayout = "e-m:e-p270:32:32-p271:32:32-p272:64:64-i64:64-i128:128-f80:128-n8:16:32:64-S128"
target triple = "x86_64-pc-linux-gnu"

; Function Attrs: nounwind uwtable
define void @Sbc_Mult(i64 noundef %0, i64 noundef %1, ptr noundef %2) #0 {
  %4 = alloca i64, align 8
  %5 = alloca i64, align 8
  %6 = alloca ptr, align 8
  %7 = alloca i64, align 8
  %8 = alloca i64, align 8
  %9 = alloca i64, align 8
  %10 = alloca i64, align 8
  %11 = alloca i64, align 8
  %12 = alloca i64, align 8
  store i64 %0, ptr %4, align 8, !tbaa !38
  store i64 %1, ptr %5, align 8, !tbaa !38
  store ptr %2, ptr %6, align 8, !tbaa !36
  call void @llvm.lifetime.start.p0(i64 8, ptr %7) #11
  store i64 4294967295, ptr %7, align 8, !tbaa !38
  call void @llvm.lifetime.start.p0(i64 8, ptr %8) #11
  %13 = load i64, ptr %4, align 8, !tbaa !38
  %14 = load i64, ptr %7, align 8, !tbaa !38
  %15 = and i64 %13, %14
  %16 = load i64, ptr %5, align 8, !tbaa !38
  %17 = load i64, ptr %7, align 8, !tbaa !38
  %18 = and i64 %16, %17
  %19 = mul i64 %15, %18
  store i64 %19, ptr %8, align 8, !tbaa !38
  call void @llvm.lifetime.start.p0(i64 8, ptr %9) #11
  %20 = load i64, ptr %4, align 8, !tbaa !38
  %21 = load i64, ptr %7, align 8, !tbaa !38
  %22 = and i64 %20, %21
  %23 = load i64, ptr %5, align 8, !tbaa !38
  %24 = lshr i64 %23, 32
  %25 = mul i64 %22, %24
  store i64 %25, ptr %9, align 8, !tbaa !38
  call void @llvm.lifetime.start.p0(i64 8, ptr %10) #11
  %26 = load i64, ptr %4, align 8, !tbaa !38
  %27 = lshr i64 %26, 32
  %28 = load i64, ptr %5, align 8, !tbaa !38
  %29 = load i64, ptr %7, align 8, !tbaa !38
  %30 = and i64 %28, %29
  %31 = mul i64 %27, %30
  store i64 %31, ptr %10, align 8, !tbaa !38
  call void @llvm.lifetime.start.p0(i64 8, ptr %11) #11
  %32 = load i64, ptr %4, align 8, !tbaa !38
  %33 = lshr i64 %32, 32
  %34 = load i64, ptr %5, align 8, !tbaa !38
  %35 = lshr i64 %34, 32
  %36 = mul i64 %33, %35
  store i64 %36, ptr %11, align 8, !tbaa !38
  call void @llvm.lifetime.start.p0(i64 8, ptr %12) #11
  %37 = load i64, ptr %9, align 8, !tbaa !38
  %38 = load i64, ptr %7, align 8, !tbaa !38
  %39 = and i64 %37, %38
  %40 = load i64, ptr %10, align 8, !tbaa !38
  %41 = load i64, ptr %7, align 8, !tbaa !38
  %42 = and i64 %40, %41
  %43 = add i64 %39, %42
  %44 = load i64, ptr %8, align 8, !tbaa !38
  %45 = lshr i64 %44, 32
  %46 = add i64 %43, %45
  store i64 %46, ptr %12, align 8, !tbaa !38
  %47 = load i64, ptr %4, align 8, !tbaa !38
  %48 = load i64, ptr %5, align 8, !tbaa !38
  %49 = mul i64 %47, %48
  %50 = load ptr, ptr %6, align 8, !tbaa !36
  %51 = getelementptr inbounds i64, ptr %50, i64 0
  store i64 %49, ptr %51, align 8, !tbaa !38
  %52 = load i64, ptr %11, align 8, !tbaa !38
  %53 = load i64, ptr %9, align 8, !tbaa !38
  %54 = lshr i64 %53, 32
  %55 = add i64 %52, %54
  %56 = load i64, ptr %10, align 8, !tbaa !38
  %57 = lshr i64 %56, 32
  %58 = add i64 %55, %57
  %59 = load i64, ptr %12, align 8, !tbaa !38
  %60 = lshr i64 %59, 32
  %61 = add i64 %58, %60
  %62 = load ptr, ptr %6, align 8, !tbaa !36
  %63 = getelementptr inbounds i64, ptr %62, i64 1
  store i64 %61, ptr %63, align 8, !tbaa !38
  call void @llvm.lifetime.end.p0(i64 8, ptr %12) #11
  call void @llvm.lifetime.end.p0(i64 8, ptr %11) #11
  call void @llvm.lifetime.end.p0(i64 8, ptr %10) #11
  call void @llvm.lifetime.end.p0(i64 8, ptr %9) #11
  call void @llvm.lifetime.end.p0(i64 8, ptr %8) #11
  call void @llvm.lifetime.end.p0(i64 8, ptr %7) #11
  ret void
}