; Function Attrs: mustprogress nofree norecurse nosync nounwind willreturn memory(argmem: write) uwtable
define void @Sbc_Mult(i64 noundef %0, i64 noundef %1, ptr noundef writeonly captures(none) initializes((0, 16)) %2) local_unnamed_addr #4 {
  %4 = and i64 %0, 4294967295
  %5 = and i64 %1, 4294967295
  %6 = mul nuw i64 %5, %4
  %7 = lshr i64 %1, 32
  %8 = mul nuw i64 %7, %4
  %9 = lshr i64 %0, 32
  %10 = mul nuw i64 %5, %9
  %11 = mul nuw i64 %7, %9
  %12 = and i64 %8, 4294967295
  %13 = and i64 %10, 4294967295
  %14 = add nuw nsw i64 %12, %13
  %15 = lshr i64 %6, 32
  %16 = add nuw nsw i64 %14, %15
  %17 = mul i64 %1, %0
  store i64 %17, ptr %2, align 8, !tbaa !52
  %18 = lshr i64 %8, 32
  %19 = add nuw i64 %18, %11
  %20 = lshr i64 %10, 32
  %21 = add nuw i64 %19, %20
  %22 = lshr i64 %16, 32
  %23 = add nuw i64 %21, %22
  %24 = getelementptr inbounds nuw i8, ptr %2, i64 8
  store i64 %23, ptr %24, align 8, !tbaa !52
  ret void
}